target datalayout = "e-m:e-p270:32:32-p271:32:32-p272:64:64-i64:64-i128:128-f80:128-n8:16:32:64-S128"
target triple = "x86_64-pc-linux-gnu"

%struct.Aig_Man_t_ = type { ptr, ptr, ptr, ptr, ptr, ptr, ptr, %struct.Aig_Obj_t_, i32, i32, i32, i32, i32, i32, [7 x i32], i32, ptr, i32, ptr, i32, ptr, i32, i32, i32, ptr, i32, i32, i32, i32, i32, ptr, ptr, i32, ptr, ptr, i32, ptr, ptr, i32, i32, i32, ptr, ptr, ptr, ptr, ptr, ptr, ptr, ptr, ptr, ptr, ptr, ptr, ptr, ptr, i32, ptr, ptr, ptr, ptr, i32, i64, i64, i64, ptr, ptr }
%struct.Aig_Obj_t_ = type { %union.anon, ptr, ptr, i64, i32, i32, %union.anon.0 }
%union.anon = type { ptr }
%union.anon.0 = type { ptr }
%struct.Vec_Ptr_t_ = type { i32, i32, ptr }

@stdout = external global ptr, align 8
@.str.11 = private unnamed_addr constant [77 x i8] c"Verifying part %4d  (out of %4d)  PI = %5d. PO = %5d. And = %6d. Lev = %4d.\0D\00", align 1
@.str.12 = private unnamed_addr constant [92 x i8] c"                                                                                          \0D\00", align 1
@.str.13 = private unnamed_addr constant [54 x i8] c"Timed out after verifying %d partitions (out of %d).\0A\00", align 1

; Function Attrs: inlinehint nounwind uwtable
define internal void @Vec_PtrFree(ptr noundef %0) #3 {
  %2 = alloca ptr, align 8
  store ptr %0, ptr %2, align 8, !tbaa !68
  %3 = load ptr, ptr %2, align 8, !tbaa !68
  %4 = getelementptr inbounds nuw %struct.Vec_Ptr_t_, ptr %3, i32 0, i32 2
  %5 = load ptr, ptr %4, align 8, !tbaa !71
  %6 = icmp ne ptr %5, null
  br i1 %6, label %7, label %13

7:                                                ; preds = %1
  %8 = load ptr, ptr %2, align 8, !tbaa !68
  %9 = getelementptr inbounds nuw %struct.Vec_Ptr_t_, ptr %8, i32 0, i32 2
  %10 = load ptr, ptr %9, align 8, !tbaa !71
  call void @free(ptr noundef %10) #9
  %11 = load ptr, ptr %2, align 8, !tbaa !68
  %12 = getelementptr inbounds nuw %struct.Vec_Ptr_t_, ptr %11, i32 0, i32 2
  store ptr null, ptr %12, align 8, !tbaa !71
  br label %14

13:                                               ; preds = %1
  br label %14

14:                                               ; preds = %13, %7
  %15 = load ptr, ptr %2, align 8, !tbaa !68
  %16 = icmp ne ptr %15, null
  br i1 %16, label %17, label %19

17:                                               ; preds = %14
  %18 = load ptr, ptr %2, align 8, !tbaa !68
  call void @free(ptr noundef %18) #9
  store ptr null, ptr %2, align 8, !tbaa !68
  br label %20

19:                                               ; preds = %14
  br label %20

20:                                               ; preds = %19, %17
  ret void
}

; Function Attrs: inlinehint nounwind uwtable
define internal void @Vec_PtrWriteEntry(ptr noundef %0, i32 noundef %1, ptr noundef %2) #3 {
  %4 = alloca ptr, align 8
  %5 = alloca i32, align 4
  %6 = alloca ptr, align 8
  store ptr %0, ptr %4, align 8, !tbaa !68
  store i32 %1, ptr %5, align 4, !tbaa !10
  store ptr %2, ptr %6, align 8, !tbaa !72
  %7 = load ptr, ptr %6, align 8, !tbaa !72
  %8 = load ptr, ptr %4, align 8, !tbaa !68
  %9 = getelementptr inbounds nuw %struct.Vec_Ptr_t_, ptr %8, i32 0, i32 2
  %10 = load ptr, ptr %9, align 8, !tbaa !71
  %11 = load i32, ptr %5, align 4, !tbaa !10
  %12 = sext i32 %11 to i64
  %13 = getelementptr inbounds ptr, ptr %10, i64 %12
  store ptr %7, ptr %13, align 8, !tbaa !72
  ret void
}

; Function Attrs: inlinehint nounwind uwtable
define internal i32 @Aig_ManNodeNum(ptr noundef %0) #3 {
  %2 = alloca ptr, align 8
  store ptr %0, ptr %2, align 8, !tbaa !3
  %3 = load ptr, ptr %2, align 8, !tbaa !3
  %4 = getelementptr inbounds nuw %struct.Aig_Man_t_, ptr %3, i32 0, i32 14
  %5 = getelementptr inbounds [7 x i32], ptr %4, i64 0, i64 5
  %6 = load i32, ptr %5, align 4, !tbaa !10
  %7 = load ptr, ptr %2, align 8, !tbaa !3
  %8 = getelementptr inbounds nuw %struct.Aig_Man_t_, ptr %7, i32 0, i32 14
  %9 = getelementptr inbounds [7 x i32], ptr %8, i64 0, i64 6
  %10 = load i32, ptr %9, align 8, !tbaa !10
  %11 = add nsw i32 %6, %10
  ret i32 %11
}

; Function Attrs: inlinehint nounwind uwtable
define internal i32 @Aig_ManCoNum(ptr noundef %0) #3 {
  %2 = alloca ptr, align 8
  store ptr %0, ptr %2, align 8, !tbaa !3
  %3 = load ptr, ptr %2, align 8, !tbaa !3
  %4 = getelementptr inbounds nuw %struct.Aig_Man_t_, ptr %3, i32 0, i32 14
  %5 = getelementptr inbounds [7 x i32], ptr %4, i64 0, i64 3
  %6 = load i32, ptr %5, align 4, !tbaa !10
  ret i32 %6
}

; Function Attrs: inlinehint nounwind uwtable
define internal i32 @Aig_ManCiNum(ptr noundef %0) #3 {
  %2 = alloca ptr, align 8
  store ptr %0, ptr %2, align 8, !tbaa !3
  %3 = load ptr, ptr %2, align 8, !tbaa !3
  %4 = getelementptr inbounds nuw %struct.Aig_Man_t_, ptr %3, i32 0, i32 14
  %5 = getelementptr inbounds [7 x i32], ptr %4, i64 0, i64 2
  %6 = load i32, ptr %5, align 8, !tbaa !10
  ret i32 %6
}

; Function Attrs: inlinehint nounwind uwtable
define internal ptr @Vec_PtrEntry(ptr noundef %0, i32 noundef %1) #3 {
  %3 = alloca ptr, align 8
  %4 = alloca i32, align 4
  store ptr %0, ptr %3, align 8, !tbaa !68
  store i32 %1, ptr %4, align 4, !tbaa !10
  %5 = load ptr, ptr %3, align 8, !tbaa !68
  %6 = getelementptr inbounds nuw %struct.Vec_Ptr_t_, ptr %5, i32 0, i32 2
  %7 = load ptr, ptr %6, align 8, !tbaa !71
  %8 = load i32, ptr %4, align 4, !tbaa !10
  %9 = sext i32 %8 to i64
  %10 = getelementptr inbounds ptr, ptr %7, i64 %9
  %11 = load ptr, ptr %10, align 8, !tbaa !72
  ret ptr %11
}

; Function Attrs: inlinehint nounwind uwtable
define internal i32 @Vec_PtrSize(ptr noundef %0) #3 {
  %2 = alloca ptr, align 8
  store ptr %0, ptr %2, align 8, !tbaa !68
  %3 = load ptr, ptr %2, align 8, !tbaa !68
  %4 = getelementptr inbounds nuw %struct.Vec_Ptr_t_, ptr %3, i32 0, i32 1
  %5 = load i32, ptr %4, align 4, !tbaa !69
  ret i32 %5
}

; Function Attrs: nounwind uwtable
define i32 @Fra_FraigCecPartitioned(ptr noundef %0, ptr noundef %1, i32 noundef %2, i32 noundef %3, i32 noundef %4, i32 noundef %5) #0 {
  %7 = alloca ptr, align 8
  %8 = alloca ptr, align 8
  %9 = alloca i32, align 4
  %10 = alloca i32, align 4
  %11 = alloca i32, align 4
  %12 = alloca i32, align 4
  %13 = alloca ptr, align 8
  %14 = alloca ptr, align 8
  %15 = alloca i32, align 4
  %16 = alloca i32, align 4
  %17 = alloca i32, align 4
  store ptr %0, ptr %7, align 8, !tbaa !3
  store ptr %1, ptr %8, align 8, !tbaa !3
  store i32 %2, ptr %9, align 4, !tbaa !10
  store i32 %3, ptr %10, align 4, !tbaa !10
  store i32 %4, ptr %11, align 4, !tbaa !10
  store i32 %5, ptr %12, align 4, !tbaa !10
  call void @llvm.lifetime.start.p0(i64 8, ptr %13) #9
  call void @llvm.lifetime.start.p0(i64 8, ptr %14) #9
  call void @llvm.lifetime.start.p0(i64 4, ptr %15) #9
  call void @llvm.lifetime.start.p0(i64 4, ptr %16) #9
  store i32 1, ptr %16, align 4, !tbaa !10
  call void @llvm.lifetime.start.p0(i64 4, ptr %17) #9
  %18 = load ptr, ptr %7, align 8, !tbaa !3
  %19 = load ptr, ptr %8, align 8, !tbaa !3
  %20 = load i32, ptr %10, align 4, !tbaa !10
  %21 = load i32, ptr %11, align 4, !tbaa !10
  %22 = call ptr @Aig_ManMiterPartitioned(ptr noundef %18, ptr noundef %19, i32 noundef %20, i32 noundef %21)
  store ptr %22, ptr %14, align 8, !tbaa !68
  store i32 -1, ptr %17, align 4, !tbaa !10
  store i32 0, ptr %15, align 4, !tbaa !10
  br label %23

23:                                               ; preds = %79, %6
  %24 = load i32, ptr %15, align 4, !tbaa !10
  %25 = load ptr, ptr %14, align 8, !tbaa !68
  %26 = call i32 @Vec_PtrSize(ptr noundef %25)
  %27 = icmp slt i32 %24, %26
  br i1 %27, label %28, label %32

28:                                               ; preds = %23
  %29 = load ptr, ptr %14, align 8, !tbaa !68
  %30 = load i32, ptr %15, align 4, !tbaa !10
  %31 = call ptr @Vec_PtrEntry(ptr noundef %29, i32 noundef %30)
  store ptr %31, ptr %13, align 8, !tbaa !3
  br label %32

32:                                               ; preds = %28, %23
  %33 = phi i1 [ false, %23 ], [ true, %28 ]
  br i1 %33, label %34, label %82

34:                                               ; preds = %32
  %35 = load i32, ptr %17, align 4, !tbaa !10
  %36 = add nsw i32 %35, 1
  store i32 %36, ptr %17, align 4, !tbaa !10
  %37 = load i32, ptr %12, align 4, !tbaa !10
  %38 = icmp ne i32 %37, 0
  br i1 %38, label %39, label %55

39:                                               ; preds = %34
  %40 = load i32, ptr %15, align 4, !tbaa !10
  %41 = add nsw i32 %40, 1
  %42 = load ptr, ptr %14, align 8, !tbaa !68
  %43 = call i32 @Vec_PtrSize(ptr noundef %42)
  %44 = load ptr, ptr %13, align 8, !tbaa !3
  %45 = call i32 @Aig_ManCiNum(ptr noundef %44)
  %46 = load ptr, ptr %13, align 8, !tbaa !3
  %47 = call i32 @Aig_ManCoNum(ptr noundef %46)
  %48 = load ptr, ptr %13, align 8, !tbaa !3
  %49 = call i32 @Aig_ManNodeNum(ptr noundef %48)
  %50 = load ptr, ptr %13, align 8, !tbaa !3
  %51 = call i32 @Aig_ManLevelNum(ptr noundef %50)
  %52 = call i32 (ptr, ...) @printf(ptr noundef @.str.11, i32 noundef %41, i32 noundef %43, i32 noundef %45, i32 noundef %47, i32 noundef %49, i32 noundef %51)
  %53 = load ptr, ptr @stdout, align 8, !tbaa !48
  %54 = call i32 @fflush(ptr noundef %53)
  br label %55

55:                                               ; preds = %39, %34
  %56 = load ptr, ptr %13, align 8, !tbaa !3
  %57 = call i32 @Fra_FraigMiterStatus(ptr noundef %56)
  store i32 %57, ptr %16, align 4, !tbaa !10
  %58 = load i32, ptr %16, align 4, !tbaa !10
  %59 = icmp eq i32 %58, 1
  br i1 %59, label %60, label %61

60:                                               ; preds = %55
  br label %79

61:                                               ; preds = %55
  %62 = load i32, ptr %16, align 4, !tbaa !10
  %63 = icmp eq i32 %62, 0
  br i1 %63, label %64, label %65

64:                                               ; preds = %61
  br label %82

65:                                               ; preds = %61
  %66 = load i32, ptr %9, align 4, !tbaa !10
  %67 = call i32 @Fra_FraigCec(ptr noundef %13, i32 noundef %66, i32 noundef 0)
  store i32 %67, ptr %16, align 4, !tbaa !10
  %68 = load ptr, ptr %14, align 8, !tbaa !68
  %69 = load i32, ptr %15, align 4, !tbaa !10
  %70 = load ptr, ptr %13, align 8, !tbaa !3
  call void @Vec_PtrWriteEntry(ptr noundef %68, i32 noundef %69, ptr noundef %70)
  %71 = load i32, ptr %16, align 4, !tbaa !10
  %72 = icmp eq i32 %71, 1
  br i1 %72, label %73, label %74

73:                                               ; preds = %65
  br label %79

74:                                               ; preds = %65
  %75 = load i32, ptr %16, align 4, !tbaa !10
  %76 = icmp eq i32 %75, 0
  br i1 %76, label %77, label %78

77:                                               ; preds = %74
  br label %82

78:                                               ; preds = %74
  br label %82

79:                                               ; preds = %73, %60
  %80 = load i32, ptr %15, align 4, !tbaa !10
  %81 = add nsw i32 %80, 1
  store i32 %81, ptr %15, align 4, !tbaa !10
  br label %23, !llvm.loop !83

82:                                               ; preds = %78, %77, %64, %32
  %83 = load i32, ptr %12, align 4, !tbaa !10
  %84 = icmp ne i32 %83, 0
  br i1 %84, label %85, label %89

85:                                               ; preds = %82
  %86 = call i32 (ptr, ...) @printf(ptr noundef @.str.12)
  %87 = load ptr, ptr @stdout, align 8, !tbaa !48
  %88 = call i32 @fflush(ptr noundef %87)
  br label %89

89:                                               ; preds = %85, %82
  %90 = load i32, ptr %16, align 4, !tbaa !10
  %91 = icmp eq i32 %90, -1
  br i1 %91, label %92, label %99

92:                                               ; preds = %89
  %93 = load i32, ptr %17, align 4, !tbaa !10
  %94 = load ptr, ptr %14, align 8, !tbaa !68
  %95 = call i32 @Vec_PtrSize(ptr noundef %94)
  %96 = call i32 (ptr, ...) @printf(ptr noundef @.str.13, i32 noundef %93, i32 noundef %95)
  %97 = load ptr, ptr @stdout, align 8, !tbaa !48
  %98 = call i32 @fflush(ptr noundef %97)
  br label %99

99:                                               ; preds = %92, %89
  store i32 0, ptr %15, align 4, !tbaa !10
  br label %100

100:                                              ; preds = %113, %99
  %101 = load i32, ptr %15, align 4, !tbaa !10
  %102 = load ptr, ptr %14, align 8, !tbaa !68
  %103 = call i32 @Vec_PtrSize(ptr noundef %102)
  %104 = icmp slt i32 %101, %103
  br i1 %104, label %105, label %109

105:                                              ; preds = %100
  %106 = load ptr, ptr %14, align 8, !tbaa !68
  %107 = load i32, ptr %15, align 4, !tbaa !10
  %108 = call ptr @Vec_PtrEntry(ptr noundef %106, i32 noundef %107)
  store ptr %108, ptr %13, align 8, !tbaa !3
  br label %109

109:                                              ; preds = %105, %100
  %110 = phi i1 [ false, %100 ], [ true, %105 ]
  br i1 %110, label %111, label %116

111:                                              ; preds = %109
  %112 = load ptr, ptr %13, align 8, !tbaa !3
  call void @Aig_ManStop(ptr noundef %112)
  br label %113

113:                                              ; preds = %111
  %114 = load i32, ptr %15, align 4, !tbaa !10
  %115 = add nsw i32 %114, 1
  store i32 %115, ptr %15, align 4, !tbaa !10
  br label %100, !llvm.loop !84

116:                                              ; preds = %109
  %117 = load ptr, ptr %14, align 8, !tbaa !68
  call void @Vec_PtrFree(ptr noundef %117)
  %118 = load i32, ptr %16, align 4, !tbaa !10
  call void @llvm.lifetime.end.p0(i64 4, ptr %17) #9
  call void @llvm.lifetime.end.p0(i64 4, ptr %16) #9
  call void @llvm.lifetime.end.p0(i64 4, ptr %15) #9
  call void @llvm.lifetime.end.p0(i64 8, ptr %14) #9
  call void @llvm.lifetime.end.p0(i64 8, ptr %13) #9
  ret i32 %118
}