; Function Attrs: nounwind uwtable
define i32 @Fra_FraigCecPartitioned(ptr noundef %0, ptr noundef %1, i32 noundef %2, i32 noundef %3, i32 noundef %4, i32 noundef %5) local_unnamed_addr #0 {
  %7 = alloca ptr, align 8
  call void @llvm.lifetime.start.p0(i64 8, ptr nonnull %7) #10
  %8 = tail call ptr @Aig_ManMiterPartitioned(ptr noundef %0, ptr noundef %1, i32 noundef %3, i32 noundef %4) #10
  %9 = getelementptr i8, ptr %8, i64 4
  %.val4350 = load i32, ptr %9, align 4, !tbaa !61
  %10 = icmp sgt i32 %.val4350, 0
  br i1 %10, label %.lr.ph, label %.critedge

.lr.ph:                                           ; preds = %6
  %11 = getelementptr i8, ptr %8, i64 8
  %.not = icmp eq i32 %5, 0
  br i1 %.not, label %.lr.ph.split.us, label %.lr.ph.split

.lr.ph.split.us:                                  ; preds = %.lr.ph, %21
  %indvars.iv76 = phi i64 [ %indvars.iv.next77, %21 ], [ 0, %.lr.ph ]
  %.052.us = phi i32 [ %14, %21 ], [ -1, %.lr.ph ]
  %.val45.us = load ptr, ptr %11, align 8, !tbaa !63
  %12 = getelementptr inbounds nuw ptr, ptr %.val45.us, i64 %indvars.iv76
  %13 = load ptr, ptr %12, align 8, !tbaa !64
  store ptr %13, ptr %7, align 8, !tbaa !67
  %14 = add nsw i32 %.052.us, 1
  %15 = tail call i32 @Fra_FraigMiterStatus(ptr noundef %13) #10
  switch i32 %15, label %16 [
    i32 1, label %21
    i32 0, label %.critedge
  ]

16:                                               ; preds = %.lr.ph.split.us
  %17 = call i32 @Fra_FraigCec(ptr noundef nonnull %7, i32 noundef %2, i32 noundef 0)
  %18 = load ptr, ptr %7, align 8, !tbaa !67
  %.val49.us = load ptr, ptr %11, align 8, !tbaa !63
  %19 = getelementptr inbounds nuw ptr, ptr %.val49.us, i64 %indvars.iv76
  store ptr %18, ptr %19, align 8, !tbaa !64
  %20 = icmp eq i32 %17, 1
  br i1 %20, label %21, label %.critedge

21:                                               ; preds = %16, %.lr.ph.split.us
  %indvars.iv.next77 = add nuw nsw i64 %indvars.iv76, 1
  %.val43.us = load i32, ptr %9, align 4, !tbaa !61
  %22 = sext i32 %.val43.us to i64
  %23 = icmp slt i64 %indvars.iv.next77, %22
  br i1 %23, label %.lr.ph.split.us, label %.critedge, !llvm.loop !74

.lr.ph.split:                                     ; preds = %.lr.ph, %43
  %indvars.iv = phi i64 [ %indvars.iv.next, %43 ], [ 0, %.lr.ph ]
  %.val4353 = phi i32 [ %.val43, %43 ], [ %.val4350, %.lr.ph ]
  %.052 = phi i32 [ %26, %43 ], [ -1, %.lr.ph ]
  %.val45 = load ptr, ptr %11, align 8, !tbaa !63
  %24 = getelementptr inbounds nuw ptr, ptr %.val45, i64 %indvars.iv
  %25 = load ptr, ptr %24, align 8, !tbaa !64
  store ptr %25, ptr %7, align 8, !tbaa !67
  %26 = add nsw i32 %.052, 1
  %indvars.iv.next = add nuw nsw i64 %indvars.iv, 1
  %27 = getelementptr i8, ptr %25, i64 136
  %.val48 = load i32, ptr %27, align 8, !tbaa !24
  %28 = getelementptr i8, ptr %25, i64 140
  %.val = load i32, ptr %28, align 4, !tbaa !24
  %29 = getelementptr i8, ptr %25, i64 148
  %.val46 = load i32, ptr %29, align 4, !tbaa !24
  %30 = getelementptr i8, ptr %25, i64 152
  %.val47 = load i32, ptr %30, align 8, !tbaa !24
  %31 = add nsw i32 %.val47, %.val46
  %32 = tail call i32 @Aig_ManLevelNum(ptr noundef %25) #10
  %33 = trunc nuw nsw i64 %indvars.iv.next to i32
  %34 = tail call i32 (ptr, ...) @printf(ptr noundef nonnull dereferenceable(1) @.str.11, i32 noundef %33, i32 noundef %.val4353, i32 noundef %.val48, i32 noundef %.val, i32 noundef %31, i32 noundef %32)
  %35 = load ptr, ptr @stdout, align 8, !tbaa !46
  %36 = tail call i32 @fflush(ptr noundef %35)
  %37 = tail call i32 @Fra_FraigMiterStatus(ptr noundef %25) #10
  switch i32 %37, label %38 [
    i32 1, label %43
    i32 0, label %.critedge
  ]

38:                                               ; preds = %.lr.ph.split
  %39 = call i32 @Fra_FraigCec(ptr noundef nonnull %7, i32 noundef %2, i32 noundef 0)
  %40 = load ptr, ptr %7, align 8, !tbaa !67
  %.val49 = load ptr, ptr %11, align 8, !tbaa !63
  %41 = getelementptr inbounds nuw ptr, ptr %.val49, i64 %indvars.iv
  store ptr %40, ptr %41, align 8, !tbaa !64
  %42 = icmp eq i32 %39, 1
  br i1 %42, label %43, label %.critedge

43:                                               ; preds = %.lr.ph.split, %38
  %.val43 = load i32, ptr %9, align 4, !tbaa !61
  %44 = sext i32 %.val43 to i64
  %45 = icmp slt i64 %indvars.iv.next, %44
  br i1 %45, label %.lr.ph.split, label %.critedge, !llvm.loop !74

.critedge:                                        ; preds = %38, %43, %.lr.ph.split, %16, %21, %.lr.ph.split.us, %6
  %.132 = phi i32 [ 1, %6 ], [ %15, %.lr.ph.split.us ], [ 1, %21 ], [ %17, %16 ], [ %37, %.lr.ph.split ], [ 1, %43 ], [ %39, %38 ]
  %.1 = phi i32 [ -1, %6 ], [ %14, %.lr.ph.split.us ], [ %14, %21 ], [ %14, %16 ], [ %26, %.lr.ph.split ], [ %26, %43 ], [ %26, %38 ]
  %.not39 = icmp eq i32 %5, 0
  br i1 %.not39, label %50, label %46

46:                                               ; preds = %.critedge
  %47 = tail call i32 (ptr, ...) @printf(ptr noundef nonnull dereferenceable(1) @.str.12)
  %48 = load ptr, ptr @stdout, align 8, !tbaa !46
  %49 = tail call i32 @fflush(ptr noundef %48)
  br label %50

50:                                               ; preds = %46, %.critedge
  %51 = icmp eq i32 %.132, -1
  %.val4066.pre87 = load i32, ptr %9, align 4, !tbaa !61
  br i1 %51, label %52, label %56

52:                                               ; preds = %50
  %53 = tail call i32 (ptr, ...) @printf(ptr noundef nonnull dereferenceable(1) @.str.13, i32 noundef %.1, i32 noundef %.val4066.pre87)
  %54 = load ptr, ptr @stdout, align 8, !tbaa !46
  %55 = tail call i32 @fflush(ptr noundef %54)
  %.val4066.pre = load i32, ptr %9, align 4, !tbaa !61
  br label %56

56:                                               ; preds = %52, %50
  %.val4066 = phi i32 [ %.val4066.pre, %52 ], [ %.val4066.pre87, %50 ]
  %57 = icmp sgt i32 %.val4066, 0
  br i1 %57, label %.lr.ph68, label %.critedge2

.lr.ph68:                                         ; preds = %56
  %58 = getelementptr i8, ptr %8, i64 8
  br label %59

59:                                               ; preds = %.lr.ph68, %59
  %indvars.iv79 = phi i64 [ 0, %.lr.ph68 ], [ %indvars.iv.next80, %59 ]
  %.val44 = load ptr, ptr %58, align 8, !tbaa !63
  %60 = getelementptr inbounds nuw ptr, ptr %.val44, i64 %indvars.iv79
  %61 = load ptr, ptr %60, align 8, !tbaa !64
  tail call void @Aig_ManStop(ptr noundef %61) #10
  %indvars.iv.next80 = add nuw nsw i64 %indvars.iv79, 1
  %.val40 = load i32, ptr %9, align 4, !tbaa !61
  %62 = sext i32 %.val40 to i64
  %63 = icmp slt i64 %indvars.iv.next80, %62
  br i1 %63, label %59, label %.critedge2, !llvm.loop !75

.critedge2:                                       ; preds = %59, %56
  %64 = getelementptr inbounds nuw i8, ptr %8, i64 8
  %65 = load ptr, ptr %64, align 8, !tbaa !63
  %.not.i = icmp eq ptr %65, null
  br i1 %.not.i, label %Vec_PtrFree.exit, label %66

66:                                               ; preds = %.critedge2
  tail call void @free(ptr noundef nonnull %65) #10
  br label %Vec_PtrFree.exit

Vec_PtrFree.exit:                                 ; preds = %.critedge2, %66
  tail call void @free(ptr noundef nonnull %8) #10
  call void @llvm.lifetime.end.p0(i64 8, ptr nonnull %7) #10
  ret i32 %.132
}